Certificate:
    Data:
        Version: 3 (0x2)
        Serial Number: 4096 (0x1000)
    Signature Algorithm: sha1WithRSAEncryption
        Issuer: C=cn, ST=sh, L=sh, O=hs, OU=data, CN=tomcat-demo-ca
        Validity
            Not Before: Apr 16 11:38:27 2017 GMT
            Not After : Apr 16 11:38:27 2019 GMT
        Subject: C=cn, ST=sh, O=hs, OU=data, CN=localhost
        Subject Public Key Info:
            Public Key Algorithm: rsaEncryption
                Public-Key: (2048 bit)
                Modulus:
                    00:df:00:5b:b8:5c:a4:2a:c6:48:55:56:1f:98:7c:
                    e3:6e:20:0f:79:6b:08:47:3c:5c:a6:fd:a2:63:83:
                    41:1a:bf:22:bc:76:70:01:e3:80:cd:4b:f5:2c:69:
                    6e:f7:79:ef:ae:b4:06:f8:78:e0:44:b7:3b:5a:41:
                    aa:9c:aa:94:3f:30:d8:68:23:33:b1:39:64:05:9d:
                    f5:b1:0c:db:4e:a1:e0:c1:bc:ff:db:18:22:6f:f1:
                    17:72:3e:9b:d7:2c:81:af:38:b9:14:cb:27:b0:74:
                    6f:2b:0f:50:00:9f:94:e2:e4:5f:bf:65:89:05:ea:
                    ec:0a:35:b2:61:bd:50:a0:04:b3:46:a6:ba:28:a7:
                    f1:69:89:13:9f:2f:91:49:5f:3c:32:63:bd:a2:7d:
                    05:52:17:ee:82:4d:af:34:70:68:04:9f:15:72:4e:
                    92:2f:ed:f1:8f:8b:84:87:46:07:b2:49:30:df:0c:
                    ba:84:01:58:a5:df:4d:de:43:e9:6a:41:a0:bf:7b:
                    0a:2b:90:7b:bb:55:03:bd:ef:ce:52:ad:ba:dd:76:
                    ba:fa:0a:81:61:14:09:b3:3c:3a:c8:9b:6c:3f:8b:
                    ec:37:0d:b6:93:14:5f:ca:2c:82:c0:98:db:9e:91:
                    59:b0:7d:08:3d:24:e3:f2:7b:d2:50:93:bc:6d:3d:
                    08:3d
                Exponent: 65537 (0x10001)
        X509v3 extensions:
            X509v3 Basic Constraints: 
                CA:FALSE
            Netscape Comment: 
                OpenSSL Generated Certificate
            X509v3 Subject Key Identifier: 
                F1:95:5C:C1:51:D0:B8:1E:CF:41:58:75:90:AA:00:47:AF:45:1C:25
            X509v3 Authority Key Identifier: 
                keyid:BB:ED:67:F5:66:3F:2D:C2:6A:36:BF:9A:25:08:13:73:B8:32:DC:FE

    Signature Algorithm: sha1WithRSAEncryption
         93:c3:71:a7:cc:88:c9:29:42:33:5a:5a:dd:f8:6b:d1:64:a3:
         a6:8e:d8:6e:94:25:a7:76:1a:43:86:0b:db:13:b3:3d:c3:8e:
         1f:09:e2:20:4a:41:b5:14:2c:af:9d:4b:6d:6e:46:66:83:63:
         7e:99:89:8c:34:72:4f:63:d2:db:a9:18:ab:21:d8:d3:3f:89:
         9e:58:94:e8:13:27:db:7f:3f:e8:53:66:e4:0e:e4:cd:13:42:
         b4:08:9b:ea:5f:39:ad:f0:6b:1a:b7:91:c0:93:9a:ab:1d:b6:
         63:95:08:3d:3b:5f:12:1e:11:96:bd:16:59:d0:4d:1b:d7:bc:
         06:3b:76:eb:64:81:3d:be:00:32:57:ee:f0:67:4d:76:bb:44:
         9d:b5:40:6b:6a:71:e0:10:96:e9:8b:8a:ce:47:25:09:1c:43:
         9e:3b:a2:4d:a5:81:1a:6f:af:f2:46:19:eb:af:b4:8a:ad:50:
         45:95:f8:a9:99:c2:13:19:ce:7d:bf:8f:34:4f:f5:df:76:25:
         52:4e:80:a4:a9:0a:69:9f:64:05:6f:67:dc:2e:9c:51:2d:51:
         a4:d4:5d:27:fa:48:63:38:4a:a6:25:e7:13:64:77:5c:58:9e:
         d0:64:e8:c2:16:1b:9b:53:13:02:f2:9f:85:f6:8e:ce:2b:43:
         af:90:8e:2e
-----BEGIN CERTIFICATE-----
MIIDnTCCAoWgAwIBAgICEAAwDQYJKoZIhvcNAQEFBQAwXDELMAkGA1UEBhMCY24x
CzAJBgNVBAgMAnNoMQswCQYDVQQHDAJzaDELMAkGA1UECgwCaHMxDTALBgNVBAsM
BGRhdGExFzAVBgNVBAMMDnRvbWNhdC1kZW1vLWNhMB4XDTE3MDQxNjExMzgyN1oX
DTE5MDQxNjExMzgyN1owSjELMAkGA1UEBhMCY24xCzAJBgNVBAgMAnNoMQswCQYD
VQQKDAJoczENMAsGA1UECwwEZGF0YTESMBAGA1UEAwwJbG9jYWxob3N0MIIBIjAN
BgkqhkiG9w0BAQEFAAOCAQ8AMIIBCgKCAQEA3wBbuFykKsZIVVYfmHzjbiAPeWsI
Rzxcpv2iY4NBGr8ivHZwAeOAzUv1LGlu93nvrrQG+HjgRLc7WkGqnKqUPzDYaCMz
sTlkBZ31sQzbTqHgwbz/2xgib/EXcj6b1yyBrzi5FMsnsHRvKw9QAJ+U4uRfv2WJ
BersCjWyYb1QoASzRqa6KKfxaYkTny+RSV88MmO9on0FUhfugk2vNHBoBJ8Vck6S
L+3xj4uEh0YHskkw3wy6hAFYpd9N3kPpakGgv3sKK5B7u1UDve/OUq263Xa6+gqB
YRQJszw6yJtsP4vsNw22kxRfyiyCwJjbnpFZsH0IPSTj8nvSUJO8bT0IPQIDAQAB
o3sweTAJBgNVHRMEAjAAMCwGCWCGSAGG+EIBDQQfFh1PcGVuU1NMIEdlbmVyYXRl
ZCBDZXJ0aWZpY2F0ZTAdBgNVHQ4EFgQU8ZVcwVHQuB7PQVh1kKoAR69FHCUwHwYD
VR0jBBgwFoAUu+1n9WY/LcJqNr+aJQgTc7gy3P4wDQYJKoZIhvcNAQEFBQADggEB
AJPDcafMiMkpQjNaWt34a9Fko6aO2G6UJad2GkOGC9sTsz3Djh8J4iBKQbUULK+d
S21uRmaDY36ZiYw0ck9j0tupGKsh2NM/iZ5YlOgTJ9t/P+hTZuQO5M0TQrQIm+pf
Oa3waxq3kcCTmqsdtmOVCD07XxIeEZa9FlnQTRvXvAY7dutkgT2+ADJX7vBnTXa7
RJ21QGtqceAQlumLis5HJQkcQ547ok2lgRpvr/JGGeuvtIqtUEWV+KmZwhMZzn2/
jzRP9d92JVJOgKSpCmmfZAVvZ9wunFEtUaTUXSf6SGM4SqYl5xNkd1xYntBk6MIW
G5tTEwLyn4X2js4rQ6+Qji4=
-----END CERTIFICATE-----
