Certificate:
    Data:
        Version: 3 (0x2)
        Serial Number: 4097 (0x1001)
    Signature Algorithm: sha1WithRSAEncryption
        Issuer: C=cn, ST=sh, L=sh, O=hs, OU=data, CN=tomcat-demo-ca
        Validity
            Not Before: Apr 16 12:42:50 2017 GMT
            Not After : Apr 16 12:42:50 2019 GMT
        Subject: C=cn, ST=sh, O=hs, OU=grafana, CN=grafana
        Subject Public Key Info:
            Public Key Algorithm: rsaEncryption
                Public-Key: (2048 bit)
                Modulus:
                    00:e6:10:0e:5d:ae:9b:8a:af:4b:71:85:cf:ba:ce:
                    8c:e1:7d:a5:87:9e:36:0a:62:6c:c8:d1:66:1e:f5:
                    6c:89:d9:81:e0:61:71:47:cb:1e:64:64:b0:75:ae:
                    62:9d:4a:0b:56:b6:2a:d0:1f:7a:d0:76:77:0d:d4:
                    be:be:26:ee:5f:9e:25:08:eb:2b:e3:1f:ec:3a:3f:
                    db:49:36:e6:77:e9:1f:8c:b0:27:13:9a:d6:fa:b2:
                    4c:12:40:46:1a:4c:3c:e5:e8:d1:c6:db:ed:04:33:
                    38:6d:6a:85:12:54:a8:58:43:c5:5f:99:23:50:7a:
                    7d:51:65:38:b1:21:7e:e9:53:16:c3:df:f2:cd:62:
                    56:31:c0:00:78:d9:a8:9d:8b:7a:ab:eb:77:34:a2:
                    23:d7:05:78:75:88:3d:ad:bb:6a:64:5e:ad:37:11:
                    15:09:4a:bd:b3:8b:a6:82:18:00:b0:e8:af:12:90:
                    94:ff:14:6b:ca:2d:69:49:fa:68:a1:47:1c:ef:ff:
                    0a:51:0e:0c:13:44:2b:c9:c2:3d:d7:9d:b7:46:62:
                    e3:40:0b:ef:d7:7f:b2:9a:24:42:2f:52:00:bc:85:
                    d7:d1:2d:70:b0:d7:2f:1d:54:90:63:ba:d5:04:5b:
                    6f:cc:e2:89:cb:41:b9:e3:7b:1b:7f:cf:00:c2:f5:
                    f5:39
                Exponent: 65537 (0x10001)
        X509v3 extensions:
            X509v3 Basic Constraints: 
                CA:FALSE
            Netscape Comment: 
                OpenSSL Generated Certificate
            X509v3 Subject Key Identifier: 
                2A:66:7E:90:A4:E2:31:92:70:78:4E:AD:F0:DA:BA:A6:A4:41:96:5C
            X509v3 Authority Key Identifier: 
                keyid:BB:ED:67:F5:66:3F:2D:C2:6A:36:BF:9A:25:08:13:73:B8:32:DC:FE

    Signature Algorithm: sha1WithRSAEncryption
         42:e6:c9:26:99:47:a1:5e:c4:46:26:0d:f2:2a:f7:a4:c9:94:
         6f:5a:d8:e3:42:4a:e7:32:77:9a:e2:66:b1:cf:cb:3a:d3:95:
         10:f7:66:ff:c5:d9:15:4c:8f:db:f8:8f:92:9a:75:86:f5:0c:
         c1:d0:72:76:15:e2:93:87:53:21:ee:12:55:a9:05:69:6f:28:
         3c:31:e1:42:c1:66:ef:d6:4c:3e:9c:ff:8f:e9:e4:3e:47:0e:
         21:69:a9:ea:24:ff:05:29:9f:be:a5:63:08:2f:00:38:7a:00:
         a7:1e:53:3f:bc:82:b7:2b:ef:fb:7c:1d:0e:da:47:fc:96:8d:
         0d:e8:0c:6c:83:38:c8:fd:fc:47:69:f4:79:df:94:24:08:9b:
         cf:7d:c9:49:73:0f:1a:e5:5d:c7:4b:5a:04:5d:6a:27:17:96:
         0a:91:0b:9b:79:23:fc:4c:8d:63:98:24:eb:7b:f9:32:a9:32:
         48:67:28:18:a4:86:9c:1c:b7:2a:63:2d:84:7a:4d:7a:01:aa:
         66:79:ec:d5:2e:21:b6:23:c5:48:8a:2e:36:e0:92:7a:6b:2e:
         57:ca:69:08:dd:af:2c:17:ee:c1:89:60:a7:e7:b7:18:33:06:
         1a:eb:5b:48:59:c2:63:dd:f9:cc:5b:30:d9:e8:fb:fa:f9:06:
         c5:8f:45:53
-----BEGIN CERTIFICATE-----
MIIDnjCCAoagAwIBAgICEAEwDQYJKoZIhvcNAQEFBQAwXDELMAkGA1UEBhMCY24x
CzAJBgNVBAgMAnNoMQswCQYDVQQHDAJzaDELMAkGA1UECgwCaHMxDTALBgNVBAsM
BGRhdGExFzAVBgNVBAMMDnRvbWNhdC1kZW1vLWNhMB4XDTE3MDQxNjEyNDI1MFoX
DTE5MDQxNjEyNDI1MFowSzELMAkGA1UEBhMCY24xCzAJBgNVBAgMAnNoMQswCQYD
VQQKDAJoczEQMA4GA1UECwwHZ3JhZmFuYTEQMA4GA1UEAwwHZ3JhZmFuYTCCASIw
DQYJKoZIhvcNAQEBBQADggEPADCCAQoCggEBAOYQDl2um4qvS3GFz7rOjOF9pYee
NgpibMjRZh71bInZgeBhcUfLHmRksHWuYp1KC1a2KtAfetB2dw3Uvr4m7l+eJQjr
K+Mf7Do/20k25nfpH4ywJxOa1vqyTBJARhpMPOXo0cbb7QQzOG1qhRJUqFhDxV+Z
I1B6fVFlOLEhfulTFsPf8s1iVjHAAHjZqJ2LeqvrdzSiI9cFeHWIPa27amRerTcR
FQlKvbOLpoIYALDorxKQlP8Ua8otaUn6aKFHHO//ClEODBNEK8nCPdedt0Zi40AL
79d/spokQi9SALyF19EtcLDXLx1UkGO61QRbb8ziictBueN7G3/PAML19TkCAwEA
AaN7MHkwCQYDVR0TBAIwADAsBglghkgBhvhCAQ0EHxYdT3BlblNTTCBHZW5lcmF0
ZWQgQ2VydGlmaWNhdGUwHQYDVR0OBBYEFCpmfpCk4jGScHhOrfDauqakQZZcMB8G
A1UdIwQYMBaAFLvtZ/VmPy3Caja/miUIE3O4Mtz+MA0GCSqGSIb3DQEBBQUAA4IB
AQBC5skmmUehXsRGJg3yKvekyZRvWtjjQkrnMnea4maxz8s605UQ92b/xdkVTI/b
+I+SmnWG9QzB0HJ2FeKTh1Mh7hJVqQVpbyg8MeFCwWbv1kw+nP+P6eQ+Rw4haanq
JP8FKZ++pWMILwA4egCnHlM/vIK3K+/7fB0O2kf8lo0N6AxsgzjI/fxHafR535Qk
CJvPfclJcw8a5V3HS1oEXWonF5YKkQubeSP8TI1jmCTre/kyqTJIZygYpIacHLcq
Yy2Eek16AapmeezVLiG2I8VIii424JJ6ay5XymkI3a8sF+7BiWCn57cYMwYa61tI
WcJj3fnMWzDZ6Pv6+QbFj0VT
-----END CERTIFICATE-----
